; Function Attrs: nounwind uwtable
define void @stb_vorbis_close(ptr noundef captures(address_is_null) %0) local_unnamed_addr #29 {
  %2 = icmp eq ptr %0, null
  br i1 %2, label %setup_free.exit, label %3

3:                                                ; preds = %1
  tail call void @vorbis_deinit(ptr noundef nonnull %0)
  %4 = getelementptr inbounds nuw i8, ptr %0, i64 128
  %5 = load ptr, ptr %4, align 8, !tbaa !17
  %.not.i = icmp eq ptr %5, null
  br i1 %.not.i, label %6, label %setup_free.exit

6:                                                ; preds = %3
  tail call void @free(ptr noundef nonnull %0) #35
  br label %setup_free.exit

setup_free.exit:                                  ; preds = %6, %3, %1
  ret void
}